; Function Attrs: null_pointer_is_valid sspstrong uwtable
define internal i32 @dissect_lpp_EPDU_Body(ptr noundef %0, i32 noundef %1, ptr noundef %2, ptr noundef %3, i32 noundef %4) #0 {
  %6 = alloca ptr, align 8
  call void @llvm.lifetime.start.p0(i64 8, ptr nonnull %6) #10
  store ptr null, ptr %6, align 8
  %7 = call i32 @dissect_per_octet_string(ptr noundef %0, i32 noundef %1, ptr noundef %2, ptr noundef %3, i32 noundef %4, i32 noundef -1, i32 noundef -1, i1 noundef zeroext false, ptr noundef nonnull %6)
  %8 = load i32, ptr @lpp_epdu_id, align 4
  %cond = icmp eq i32 %8, 1
  br i1 %cond, label %9, label %18

9:                                                ; preds = %5
  %10 = load ptr, ptr %6, align 8
  %11 = icmp ne ptr %10, null
  %12 = load ptr, ptr @lppe_handle, align 8
  %13 = icmp ne ptr %12, null
  %or.cond = select i1 %11, i1 %13, i1 false
  br i1 %or.cond, label %14, label %18

14:                                               ; preds = %9
  %15 = getelementptr inbounds nuw i8, ptr %2, i64 16
  %16 = load ptr, ptr %15, align 8
  %17 = call i32 @call_dissector(ptr noundef nonnull %12, ptr noundef nonnull %10, ptr noundef %16, ptr noundef %3)
  br label %18

18:                                               ; preds = %5, %9, %14
  store i32 -1, ptr @lpp_epdu_id, align 4
  call void @llvm.lifetime.end.p0(i64 8, ptr nonnull %6) #10
  ret i32 %7
}